target datalayout = "e-m:e-p270:32:32-p271:32:32-p272:64:64-i64:64-i128:128-f80:128-n8:16:32:64-S128"
target triple = "x86_64-pc-linux-gnu"

%struct.ssl_test_ctx_option = type { ptr, ptr }
%struct.SSL_TEST_CTX = type { i32, i32, i32, i32, i32, %struct.SSL_TEST_EXTRA_CONF, %struct.SSL_TEST_EXTRA_CONF, i32, i32, i32, i32, i32, i32, i32, ptr, ptr, i32, i32, i32, i32, i32, ptr, i32, i32, i32, ptr, i32, i32, i32, i32, i32, ptr, ptr, ptr, ptr }
%struct.SSL_TEST_EXTRA_CONF = type { %struct.SSL_TEST_CLIENT_CONF, %struct.SSL_TEST_SERVER_CONF, %struct.SSL_TEST_SERVER_CONF }
%struct.SSL_TEST_CLIENT_CONF = type { i32, i32, i32, ptr, ptr, i32, ptr, ptr, ptr, i32, i32 }
%struct.SSL_TEST_SERVER_CONF = type { i32, ptr, ptr, i32, i32, ptr, ptr, i32, ptr }
%struct.CONF_VALUE = type { ptr, ptr, ptr }

@.str = private unnamed_addr constant [39 x i8] c"../openssl/test/helpers/ssl_test_ctx.c\00", align 1
@.str.1 = private unnamed_addr constant [48 x i8] c"sk_conf = NCONF_get_section(conf, test_section)\00", align 1
@.str.2 = private unnamed_addr constant [31 x i8] c"ctx = SSL_TEST_CTX_new(libctx)\00", align 1
@.str.3 = private unnamed_addr constant [7 x i8] c"client\00", align 1
@.str.4 = private unnamed_addr constant [7 x i8] c"server\00", align 1
@.str.5 = private unnamed_addr constant [8 x i8] c"server2\00", align 1
@.str.6 = private unnamed_addr constant [14 x i8] c"resume-client\00", align 1
@.str.7 = private unnamed_addr constant [14 x i8] c"resume-server\00", align 1
@.str.8 = private unnamed_addr constant [15 x i8] c"resume-server2\00", align 1
@.str.9 = private unnamed_addr constant [27 x i8] c"Bad value %s for option %s\00", align 1
@.str.10 = private unnamed_addr constant [24 x i8] c"Unknown test option: %s\00", align 1

; Function Attrs: inlinehint nounwind uwtable
define internal ptr @ossl_check_const_CONF_VALUE_sk_type(ptr noundef %0) #3 {
  %2 = alloca ptr, align 8
  store ptr %0, ptr %2, align 8, !tbaa !39
  %3 = load ptr, ptr %2, align 8, !tbaa !39
  ret ptr %3
}

; Function Attrs: nounwind uwtable
define dso_local ptr @SSL_TEST_CTX_new(ptr noundef %0) #0 {
  %2 = alloca ptr, align 8
  %3 = alloca ptr, align 8
  store ptr %0, ptr %2, align 8, !tbaa !18
  call void @llvm.lifetime.start.p0(i64 8, ptr %3) #7
  %4 = call noalias ptr @CRYPTO_zalloc(i64 noundef 584, ptr noundef @.str, i32 noundef 744)
  store ptr %4, ptr %3, align 8, !tbaa !8
  %5 = icmp ne ptr %4, null
  br i1 %5, label %6, label %14

6:                                                ; preds = %1
  %7 = load ptr, ptr %2, align 8, !tbaa !18
  %8 = load ptr, ptr %3, align 8, !tbaa !8
  %9 = getelementptr inbounds nuw %struct.SSL_TEST_CTX, ptr %8, i32 0, i32 33
  store ptr %7, ptr %9, align 8, !tbaa !20
  %10 = load ptr, ptr %3, align 8, !tbaa !8
  %11 = getelementptr inbounds nuw %struct.SSL_TEST_CTX, ptr %10, i32 0, i32 2
  store i32 256, ptr %11, align 8, !tbaa !26
  %12 = load ptr, ptr %3, align 8, !tbaa !8
  %13 = getelementptr inbounds nuw %struct.SSL_TEST_CTX, ptr %12, i32 0, i32 3
  store i32 512, ptr %13, align 4, !tbaa !27
  br label %14

14:                                               ; preds = %6, %1
  %15 = load ptr, ptr %3, align 8, !tbaa !8
  call void @llvm.lifetime.end.p0(i64 8, ptr %3) #7
  ret ptr %15
}

; Function Attrs: nounwind uwtable
define dso_local ptr @SSL_TEST_CTX_create(ptr noundef %0, ptr noundef %1, ptr noundef %2) #0 {
  %4 = alloca ptr, align 8
  %5 = alloca ptr, align 8
  %6 = alloca ptr, align 8
  %7 = alloca ptr, align 8
  %8 = alloca ptr, align 8
  %9 = alloca ptr, align 8
  %10 = alloca i32, align 4
  %11 = alloca i64, align 8
  %12 = alloca i32, align 4
  %13 = alloca ptr, align 8
  %14 = alloca i32, align 4
  store ptr %0, ptr %5, align 8, !tbaa !36
  store ptr %1, ptr %6, align 8, !tbaa !38
  store ptr %2, ptr %7, align 8, !tbaa !18
  call void @llvm.lifetime.start.p0(i64 8, ptr %8) #7
  store ptr null, ptr %8, align 8, !tbaa !39
  call void @llvm.lifetime.start.p0(i64 8, ptr %9) #7
  store ptr null, ptr %9, align 8, !tbaa !8
  call void @llvm.lifetime.start.p0(i64 4, ptr %10) #7
  call void @llvm.lifetime.start.p0(i64 8, ptr %11) #7
  %15 = load ptr, ptr %5, align 8, !tbaa !36
  %16 = load ptr, ptr %6, align 8, !tbaa !38
  %17 = call ptr @NCONF_get_section(ptr noundef %15, ptr noundef %16)
  store ptr %17, ptr %8, align 8, !tbaa !39
  %18 = call i32 @test_ptr(ptr noundef @.str, i32 noundef 866, ptr noundef @.str.1, ptr noundef %17)
  %19 = icmp ne i32 %18, 0
  br i1 %19, label %20, label %25

20:                                               ; preds = %3
  %21 = load ptr, ptr %7, align 8, !tbaa !18
  %22 = call ptr @SSL_TEST_CTX_new(ptr noundef %21)
  store ptr %22, ptr %9, align 8, !tbaa !8
  %23 = call i32 @test_ptr(ptr noundef @.str, i32 noundef 867, ptr noundef @.str.2, ptr noundef %22)
  %24 = icmp ne i32 %23, 0
  br i1 %24, label %26, label %25

25:                                               ; preds = %20, %3
  br label %203

26:                                               ; preds = %20
  store i32 0, ptr %10, align 4, !tbaa !4
  br label %27

27:                                               ; preds = %199, %26
  %28 = load i32, ptr %10, align 4, !tbaa !4
  %29 = load ptr, ptr %8, align 8, !tbaa !39
  %30 = call ptr @ossl_check_const_CONF_VALUE_sk_type(ptr noundef %29)
  %31 = call i32 @OPENSSL_sk_num(ptr noundef %30)
  %32 = icmp slt i32 %28, %31
  br i1 %32, label %33, label %202

33:                                               ; preds = %27
  call void @llvm.lifetime.start.p0(i64 4, ptr %12) #7
  store i32 0, ptr %12, align 4, !tbaa !4
  call void @llvm.lifetime.start.p0(i64 8, ptr %13) #7
  %34 = load ptr, ptr %8, align 8, !tbaa !39
  %35 = call ptr @ossl_check_const_CONF_VALUE_sk_type(ptr noundef %34)
  %36 = load i32, ptr %10, align 4, !tbaa !4
  %37 = call ptr @OPENSSL_sk_value(ptr noundef %35, i32 noundef %36)
  store ptr %37, ptr %13, align 8, !tbaa !8
  %38 = load ptr, ptr %13, align 8, !tbaa !8
  %39 = getelementptr inbounds nuw %struct.CONF_VALUE, ptr %38, i32 0, i32 1
  %40 = load ptr, ptr %39, align 8, !tbaa !41
  %41 = call i32 @strcmp(ptr noundef %40, ptr noundef @.str.3) #8
  %42 = icmp eq i32 %41, 0
  br i1 %42, label %43, label %55

43:                                               ; preds = %33
  %44 = load ptr, ptr %9, align 8, !tbaa !8
  %45 = getelementptr inbounds nuw %struct.SSL_TEST_CTX, ptr %44, i32 0, i32 5
  %46 = getelementptr inbounds nuw %struct.SSL_TEST_EXTRA_CONF, ptr %45, i32 0, i32 0
  %47 = load ptr, ptr %5, align 8, !tbaa !36
  %48 = load ptr, ptr %13, align 8, !tbaa !8
  %49 = getelementptr inbounds nuw %struct.CONF_VALUE, ptr %48, i32 0, i32 2
  %50 = load ptr, ptr %49, align 8, !tbaa !43
  %51 = call i32 @parse_client_options(ptr noundef %46, ptr noundef %47, ptr noundef %50)
  %52 = icmp ne i32 %51, 0
  br i1 %52, label %54, label %53

53:                                               ; preds = %43
  store i32 2, ptr %14, align 4
  br label %196

54:                                               ; preds = %43
  br label %195

55:                                               ; preds = %33
  %56 = load ptr, ptr %13, align 8, !tbaa !8
  %57 = getelementptr inbounds nuw %struct.CONF_VALUE, ptr %56, i32 0, i32 1
  %58 = load ptr, ptr %57, align 8, !tbaa !41
  %59 = call i32 @strcmp(ptr noundef %58, ptr noundef @.str.4) #8
  %60 = icmp eq i32 %59, 0
  br i1 %60, label %61, label %73

61:                                               ; preds = %55
  %62 = load ptr, ptr %9, align 8, !tbaa !8
  %63 = getelementptr inbounds nuw %struct.SSL_TEST_CTX, ptr %62, i32 0, i32 5
  %64 = getelementptr inbounds nuw %struct.SSL_TEST_EXTRA_CONF, ptr %63, i32 0, i32 1
  %65 = load ptr, ptr %5, align 8, !tbaa !36
  %66 = load ptr, ptr %13, align 8, !tbaa !8
  %67 = getelementptr inbounds nuw %struct.CONF_VALUE, ptr %66, i32 0, i32 2
  %68 = load ptr, ptr %67, align 8, !tbaa !43
  %69 = call i32 @parse_server_options(ptr noundef %64, ptr noundef %65, ptr noundef %68)
  %70 = icmp ne i32 %69, 0
  br i1 %70, label %72, label %71

71:                                               ; preds = %61
  store i32 2, ptr %14, align 4
  br label %196

72:                                               ; preds = %61
  br label %194

73:                                               ; preds = %55
  %74 = load ptr, ptr %13, align 8, !tbaa !8
  %75 = getelementptr inbounds nuw %struct.CONF_VALUE, ptr %74, i32 0, i32 1
  %76 = load ptr, ptr %75, align 8, !tbaa !41
  %77 = call i32 @strcmp(ptr noundef %76, ptr noundef @.str.5) #8
  %78 = icmp eq i32 %77, 0
  br i1 %78, label %79, label %91

79:                                               ; preds = %73
  %80 = load ptr, ptr %9, align 8, !tbaa !8
  %81 = getelementptr inbounds nuw %struct.SSL_TEST_CTX, ptr %80, i32 0, i32 5
  %82 = getelementptr inbounds nuw %struct.SSL_TEST_EXTRA_CONF, ptr %81, i32 0, i32 2
  %83 = load ptr, ptr %5, align 8, !tbaa !36
  %84 = load ptr, ptr %13, align 8, !tbaa !8
  %85 = getelementptr inbounds nuw %struct.CONF_VALUE, ptr %84, i32 0, i32 2
  %86 = load ptr, ptr %85, align 8, !tbaa !43
  %87 = call i32 @parse_server_options(ptr noundef %82, ptr noundef %83, ptr noundef %86)
  %88 = icmp ne i32 %87, 0
  br i1 %88, label %90, label %89

89:                                               ; preds = %79
  store i32 2, ptr %14, align 4
  br label %196

90:                                               ; preds = %79
  br label %193

91:                                               ; preds = %73
  %92 = load ptr, ptr %13, align 8, !tbaa !8
  %93 = getelementptr inbounds nuw %struct.CONF_VALUE, ptr %92, i32 0, i32 1
  %94 = load ptr, ptr %93, align 8, !tbaa !41
  %95 = call i32 @strcmp(ptr noundef %94, ptr noundef @.str.6) #8
  %96 = icmp eq i32 %95, 0
  br i1 %96, label %97, label %109

97:                                               ; preds = %91
  %98 = load ptr, ptr %9, align 8, !tbaa !8
  %99 = getelementptr inbounds nuw %struct.SSL_TEST_CTX, ptr %98, i32 0, i32 6
  %100 = getelementptr inbounds nuw %struct.SSL_TEST_EXTRA_CONF, ptr %99, i32 0, i32 0
  %101 = load ptr, ptr %5, align 8, !tbaa !36
  %102 = load ptr, ptr %13, align 8, !tbaa !8
  %103 = getelementptr inbounds nuw %struct.CONF_VALUE, ptr %102, i32 0, i32 2
  %104 = load ptr, ptr %103, align 8, !tbaa !43
  %105 = call i32 @parse_client_options(ptr noundef %100, ptr noundef %101, ptr noundef %104)
  %106 = icmp ne i32 %105, 0
  br i1 %106, label %108, label %107

107:                                              ; preds = %97
  store i32 2, ptr %14, align 4
  br label %196

108:                                              ; preds = %97
  br label %192

109:                                              ; preds = %91
  %110 = load ptr, ptr %13, align 8, !tbaa !8
  %111 = getelementptr inbounds nuw %struct.CONF_VALUE, ptr %110, i32 0, i32 1
  %112 = load ptr, ptr %111, align 8, !tbaa !41
  %113 = call i32 @strcmp(ptr noundef %112, ptr noundef @.str.7) #8
  %114 = icmp eq i32 %113, 0
  br i1 %114, label %115, label %127

115:                                              ; preds = %109
  %116 = load ptr, ptr %9, align 8, !tbaa !8
  %117 = getelementptr inbounds nuw %struct.SSL_TEST_CTX, ptr %116, i32 0, i32 6
  %118 = getelementptr inbounds nuw %struct.SSL_TEST_EXTRA_CONF, ptr %117, i32 0, i32 1
  %119 = load ptr, ptr %5, align 8, !tbaa !36
  %120 = load ptr, ptr %13, align 8, !tbaa !8
  %121 = getelementptr inbounds nuw %struct.CONF_VALUE, ptr %120, i32 0, i32 2
  %122 = load ptr, ptr %121, align 8, !tbaa !43
  %123 = call i32 @parse_server_options(ptr noundef %118, ptr noundef %119, ptr noundef %122)
  %124 = icmp ne i32 %123, 0
  br i1 %124, label %126, label %125

125:                                              ; preds = %115
  store i32 2, ptr %14, align 4
  br label %196

126:                                              ; preds = %115
  br label %191

127:                                              ; preds = %109
  %128 = load ptr, ptr %13, align 8, !tbaa !8
  %129 = getelementptr inbounds nuw %struct.CONF_VALUE, ptr %128, i32 0, i32 1
  %130 = load ptr, ptr %129, align 8, !tbaa !41
  %131 = call i32 @strcmp(ptr noundef %130, ptr noundef @.str.8) #8
  %132 = icmp eq i32 %131, 0
  br i1 %132, label %133, label %145

133:                                              ; preds = %127
  %134 = load ptr, ptr %9, align 8, !tbaa !8
  %135 = getelementptr inbounds nuw %struct.SSL_TEST_CTX, ptr %134, i32 0, i32 6
  %136 = getelementptr inbounds nuw %struct.SSL_TEST_EXTRA_CONF, ptr %135, i32 0, i32 2
  %137 = load ptr, ptr %5, align 8, !tbaa !36
  %138 = load ptr, ptr %13, align 8, !tbaa !8
  %139 = getelementptr inbounds nuw %struct.CONF_VALUE, ptr %138, i32 0, i32 2
  %140 = load ptr, ptr %139, align 8, !tbaa !43
  %141 = call i32 @parse_server_options(ptr noundef %136, ptr noundef %137, ptr noundef %140)
  %142 = icmp ne i32 %141, 0
  br i1 %142, label %144, label %143

143:                                              ; preds = %133
  store i32 2, ptr %14, align 4
  br label %196

144:                                              ; preds = %133
  br label %190

145:                                              ; preds = %127
  store i64 0, ptr %11, align 8, !tbaa !10
  br label %146

146:                                              ; preds = %179, %145
  %147 = load i64, ptr %11, align 8, !tbaa !10
  %148 = icmp ult i64 %147, 32
  br i1 %148, label %149, label %182

149:                                              ; preds = %146
  %150 = load ptr, ptr %13, align 8, !tbaa !8
  %151 = getelementptr inbounds nuw %struct.CONF_VALUE, ptr %150, i32 0, i32 1
  %152 = load ptr, ptr %151, align 8, !tbaa !41
  %153 = load i64, ptr %11, align 8, !tbaa !10
  %154 = getelementptr inbounds nuw [32 x %struct.ssl_test_ctx_option], ptr @ssl_test_ctx_options, i64 0, i64 %153
  %155 = getelementptr inbounds nuw %struct.ssl_test_ctx_option, ptr %154, i32 0, i32 0
  %156 = load ptr, ptr %155, align 16, !tbaa !44
  %157 = call i32 @strcmp(ptr noundef %152, ptr noundef %156) #8
  %158 = icmp eq i32 %157, 0
  br i1 %158, label %159, label %178

159:                                              ; preds = %149
  %160 = load i64, ptr %11, align 8, !tbaa !10
  %161 = getelementptr inbounds nuw [32 x %struct.ssl_test_ctx_option], ptr @ssl_test_ctx_options, i64 0, i64 %160
  %162 = getelementptr inbounds nuw %struct.ssl_test_ctx_option, ptr %161, i32 0, i32 1
  %163 = load ptr, ptr %162, align 8, !tbaa !46
  %164 = load ptr, ptr %9, align 8, !tbaa !8
  %165 = load ptr, ptr %13, align 8, !tbaa !8
  %166 = getelementptr inbounds nuw %struct.CONF_VALUE, ptr %165, i32 0, i32 2
  %167 = load ptr, ptr %166, align 8, !tbaa !43
  %168 = call i32 %163(ptr noundef %164, ptr noundef %167)
  %169 = icmp ne i32 %168, 0
  br i1 %169, label %177, label %170

170:                                              ; preds = %159
  %171 = load ptr, ptr %13, align 8, !tbaa !8
  %172 = getelementptr inbounds nuw %struct.CONF_VALUE, ptr %171, i32 0, i32 2
  %173 = load ptr, ptr %172, align 8, !tbaa !43
  %174 = load ptr, ptr %13, align 8, !tbaa !8
  %175 = getelementptr inbounds nuw %struct.CONF_VALUE, ptr %174, i32 0, i32 1
  %176 = load ptr, ptr %175, align 8, !tbaa !41
  call void (ptr, i32, ptr, ...) @test_info(ptr noundef @.str, i32 noundef 901, ptr noundef @.str.9, ptr noundef %173, ptr noundef %176)
  store i32 2, ptr %14, align 4
  br label %196

177:                                              ; preds = %159
  store i32 1, ptr %12, align 4, !tbaa !4
  br label %182

178:                                              ; preds = %149
  br label %179

179:                                              ; preds = %178
  %180 = load i64, ptr %11, align 8, !tbaa !10
  %181 = add i64 %180, 1
  store i64 %181, ptr %11, align 8, !tbaa !10
  br label %146, !llvm.loop !47

182:                                              ; preds = %177, %146
  %183 = load i32, ptr %12, align 4, !tbaa !4
  %184 = icmp ne i32 %183, 0
  br i1 %184, label %189, label %185

185:                                              ; preds = %182
  %186 = load ptr, ptr %13, align 8, !tbaa !8
  %187 = getelementptr inbounds nuw %struct.CONF_VALUE, ptr %186, i32 0, i32 1
  %188 = load ptr, ptr %187, align 8, !tbaa !41
  call void (ptr, i32, ptr, ...) @test_info(ptr noundef @.str, i32 noundef 909, ptr noundef @.str.10, ptr noundef %188)
  store i32 2, ptr %14, align 4
  br label %196

189:                                              ; preds = %182
  br label %190

190:                                              ; preds = %189, %144
  br label %191

191:                                              ; preds = %190, %126
  br label %192

192:                                              ; preds = %191, %108
  br label %193

193:                                              ; preds = %192, %90
  br label %194

194:                                              ; preds = %193, %72
  br label %195

195:                                              ; preds = %194, %54
  store i32 0, ptr %14, align 4
  br label %196

196:                                              ; preds = %185, %170, %143, %125, %107, %89, %71, %53, %195
  call void @llvm.lifetime.end.p0(i64 8, ptr %13) #7
  call void @llvm.lifetime.end.p0(i64 4, ptr %12) #7
  %197 = load i32, ptr %14, align 4
  switch i32 %197, label %207 [
    i32 0, label %198
    i32 2, label %203
  ]

198:                                              ; preds = %196
  br label %199

199:                                              ; preds = %198
  %200 = load i32, ptr %10, align 4, !tbaa !4
  %201 = add nsw i32 %200, 1
  store i32 %201, ptr %10, align 4, !tbaa !4
  br label %27, !llvm.loop !48

202:                                              ; preds = %27
  br label %205

203:                                              ; preds = %196, %25
  %204 = load ptr, ptr %9, align 8, !tbaa !8
  call void @SSL_TEST_CTX_free(ptr noundef %204)
  store ptr null, ptr %9, align 8, !tbaa !8
  br label %205

205:                                              ; preds = %203, %202
  %206 = load ptr, ptr %9, align 8, !tbaa !8
  store ptr %206, ptr %4, align 8
  store i32 1, ptr %14, align 4
  br label %207

207:                                              ; preds = %205, %196
  call void @llvm.lifetime.end.p0(i64 8, ptr %11) #7
  call void @llvm.lifetime.end.p0(i64 4, ptr %10) #7
  call void @llvm.lifetime.end.p0(i64 8, ptr %9) #7
  call void @llvm.lifetime.end.p0(i64 8, ptr %8) #7
  %208 = load ptr, ptr %4, align 8
  ret ptr %208
}