; Function Attrs: nounwind uwtable
define dso_local ptr @SSL_TEST_CTX_create(ptr noundef %0, ptr noundef %1, ptr noundef %2) local_unnamed_addr #1 {
  %4 = tail call ptr @NCONF_get_section(ptr noundef %0, ptr noundef %1) #8
  %5 = tail call i32 @test_ptr(ptr noundef nonnull @.str, i32 noundef 866, ptr noundef nonnull @.str.1, ptr noundef %4) #8
  %.not = icmp eq i32 %5, 0
  br i1 %.not, label %.thread, label %6

6:                                                ; preds = %3
  %7 = tail call noalias ptr @CRYPTO_zalloc(i64 noundef 584, ptr noundef nonnull @.str, i32 noundef 744) #8
  %.not.i = icmp eq ptr %7, null
  br i1 %.not.i, label %SSL_TEST_CTX_new.exit, label %8

8:                                                ; preds = %6
  %9 = getelementptr inbounds nuw i8, ptr %7, i64 568
  store ptr %2, ptr %9, align 8, !tbaa !14
  %10 = getelementptr inbounds nuw i8, ptr %7, i64 8
  store i32 256, ptr %10, align 8, !tbaa !21
  %11 = getelementptr inbounds nuw i8, ptr %7, i64 12
  store i32 512, ptr %11, align 4, !tbaa !22
  br label %SSL_TEST_CTX_new.exit

SSL_TEST_CTX_new.exit:                            ; preds = %6, %8
  %12 = tail call i32 @test_ptr(ptr noundef nonnull @.str, i32 noundef 867, ptr noundef nonnull @.str.2, ptr noundef %7) #8
  %.not51 = icmp eq i32 %12, 0
  br i1 %.not51, label %.thread, label %.preheader63

.preheader63:                                     ; preds = %SSL_TEST_CTX_new.exit
  %13 = tail call i32 @OPENSSL_sk_num(ptr noundef %4) #8
  %14 = icmp sgt i32 %13, 0
  br i1 %14, label %.lr.ph, label %.loopexit

.lr.ph:                                           ; preds = %.preheader63
  %15 = getelementptr inbounds nuw i8, ptr %7, i64 360
  %16 = getelementptr inbounds nuw i8, ptr %7, i64 296
  %17 = getelementptr inbounds nuw i8, ptr %7, i64 224
  %18 = getelementptr inbounds nuw i8, ptr %7, i64 160
  %19 = getelementptr inbounds nuw i8, ptr %7, i64 96
  %20 = getelementptr inbounds nuw i8, ptr %7, i64 24
  br label %21

21:                                               ; preds = %.lr.ph, %83
  %.04972 = phi i32 [ 0, %.lr.ph ], [ %84, %83 ]
  %22 = tail call ptr @OPENSSL_sk_value(ptr noundef %4, i32 noundef %.04972) #8
  %23 = getelementptr inbounds nuw i8, ptr %22, i64 8
  %24 = load ptr, ptr %23, align 8, !tbaa !30
  %25 = tail call i32 @strcmp(ptr noundef nonnull dereferenceable(1) %24, ptr noundef nonnull dereferenceable(7) @.str.3) #9
  %26 = icmp eq i32 %25, 0
  br i1 %26, label %27, label %31

27:                                               ; preds = %21
  %28 = getelementptr inbounds nuw i8, ptr %22, i64 16
  %29 = load ptr, ptr %28, align 8, !tbaa !32
  %30 = tail call fastcc i32 @parse_client_options(ptr noundef nonnull %20, ptr noundef %0, ptr noundef %29)
  %.not59 = icmp eq i32 %30, 0
  br i1 %.not59, label %.thread, label %83

31:                                               ; preds = %21
  %32 = tail call i32 @strcmp(ptr noundef nonnull dereferenceable(1) %24, ptr noundef nonnull dereferenceable(7) @.str.4) #9
  %33 = icmp eq i32 %32, 0
  br i1 %33, label %34, label %38

34:                                               ; preds = %31
  %35 = getelementptr inbounds nuw i8, ptr %22, i64 16
  %36 = load ptr, ptr %35, align 8, !tbaa !32
  %37 = tail call fastcc i32 @parse_server_options(ptr noundef nonnull %19, ptr noundef %0, ptr noundef %36)
  %.not58 = icmp eq i32 %37, 0
  br i1 %.not58, label %.thread, label %83

38:                                               ; preds = %31
  %39 = tail call i32 @strcmp(ptr noundef nonnull dereferenceable(1) %24, ptr noundef nonnull dereferenceable(8) @.str.5) #9
  %40 = icmp eq i32 %39, 0
  br i1 %40, label %41, label %45

41:                                               ; preds = %38
  %42 = getelementptr inbounds nuw i8, ptr %22, i64 16
  %43 = load ptr, ptr %42, align 8, !tbaa !32
  %44 = tail call fastcc i32 @parse_server_options(ptr noundef nonnull %18, ptr noundef %0, ptr noundef %43)
  %.not57 = icmp eq i32 %44, 0
  br i1 %.not57, label %.thread, label %83

45:                                               ; preds = %38
  %46 = tail call i32 @strcmp(ptr noundef nonnull dereferenceable(1) %24, ptr noundef nonnull dereferenceable(14) @.str.6) #9
  %47 = icmp eq i32 %46, 0
  br i1 %47, label %48, label %52

48:                                               ; preds = %45
  %49 = getelementptr inbounds nuw i8, ptr %22, i64 16
  %50 = load ptr, ptr %49, align 8, !tbaa !32
  %51 = tail call fastcc i32 @parse_client_options(ptr noundef nonnull %17, ptr noundef %0, ptr noundef %50)
  %.not56 = icmp eq i32 %51, 0
  br i1 %.not56, label %.thread, label %83

52:                                               ; preds = %45
  %53 = tail call i32 @strcmp(ptr noundef nonnull dereferenceable(1) %24, ptr noundef nonnull dereferenceable(14) @.str.7) #9
  %54 = icmp eq i32 %53, 0
  br i1 %54, label %55, label %59

55:                                               ; preds = %52
  %56 = getelementptr inbounds nuw i8, ptr %22, i64 16
  %57 = load ptr, ptr %56, align 8, !tbaa !32
  %58 = tail call fastcc i32 @parse_server_options(ptr noundef nonnull %16, ptr noundef %0, ptr noundef %57)
  %.not55 = icmp eq i32 %58, 0
  br i1 %.not55, label %.thread, label %83

59:                                               ; preds = %52
  %60 = tail call i32 @strcmp(ptr noundef nonnull dereferenceable(1) %24, ptr noundef nonnull dereferenceable(15) @.str.8) #9
  %61 = icmp eq i32 %60, 0
  br i1 %61, label %62, label %.preheader

62:                                               ; preds = %59
  %63 = getelementptr inbounds nuw i8, ptr %22, i64 16
  %64 = load ptr, ptr %63, align 8, !tbaa !32
  %65 = tail call fastcc i32 @parse_server_options(ptr noundef nonnull %15, ptr noundef %0, ptr noundef %64)
  %.not54 = icmp eq i32 %65, 0
  br i1 %.not54, label %.thread, label %83

66:                                               ; preds = %.preheader
  %67 = add nuw nsw i64 %.04868, 1
  %exitcond = icmp eq i64 %67, 32
  br i1 %exitcond, label %.critedge, label %.preheader, !llvm.loop !33

.preheader:                                       ; preds = %59, %66
  %.04868 = phi i64 [ %67, %66 ], [ 0, %59 ]
  %68 = getelementptr inbounds nuw [32 x %struct.ssl_test_ctx_option], ptr @ssl_test_ctx_options, i64 0, i64 %.04868
  %69 = load ptr, ptr %68, align 16, !tbaa !34
  %70 = tail call i32 @strcmp(ptr noundef nonnull dereferenceable(1) %24, ptr noundef nonnull dereferenceable(1) %69) #9
  %71 = icmp eq i32 %70, 0
  br i1 %71, label %72, label %66

72:                                               ; preds = %.preheader
  %73 = getelementptr inbounds nuw i8, ptr %68, i64 8
  %74 = load ptr, ptr %73, align 8, !tbaa !36
  %75 = getelementptr inbounds nuw i8, ptr %22, i64 16
  %76 = load ptr, ptr %75, align 8, !tbaa !32
  %77 = tail call i32 %74(ptr noundef %7, ptr noundef %76) #8
  %.not52 = icmp eq i32 %77, 0
  br i1 %.not52, label %78, label %83

78:                                               ; preds = %72
  %79 = getelementptr inbounds nuw i8, ptr %22, i64 8
  %80 = getelementptr inbounds nuw i8, ptr %22, i64 16
  %81 = load ptr, ptr %80, align 8, !tbaa !32
  %82 = load ptr, ptr %79, align 8, !tbaa !30
  tail call void (ptr, i32, ptr, ...) @test_info(ptr noundef nonnull @.str, i32 noundef 901, ptr noundef nonnull @.str.9, ptr noundef %81, ptr noundef %82) #8
  br label %.thread

.critedge:                                        ; preds = %66
  tail call void (ptr, i32, ptr, ...) @test_info(ptr noundef nonnull @.str, i32 noundef 909, ptr noundef nonnull @.str.10, ptr noundef nonnull %24) #8
  br label %.thread

83:                                               ; preds = %72, %34, %48, %62, %55, %41, %27
  %84 = add nuw nsw i32 %.04972, 1
  %85 = tail call i32 @OPENSSL_sk_num(ptr noundef %4) #8
  %86 = icmp slt i32 %84, %85
  br i1 %86, label %21, label %.loopexit, !llvm.loop !37

.thread:                                          ; preds = %62, %55, %48, %41, %34, %27, %78, %.critedge, %3, %SSL_TEST_CTX_new.exit
  %.050 = phi ptr [ %7, %SSL_TEST_CTX_new.exit ], [ null, %3 ], [ %7, %.critedge ], [ %7, %78 ], [ %7, %27 ], [ %7, %34 ], [ %7, %41 ], [ %7, %48 ], [ %7, %55 ], [ %7, %62 ]
  tail call void @SSL_TEST_CTX_free(ptr noundef %.050)
  br label %.loopexit

.loopexit:                                        ; preds = %83, %.preheader63, %.thread
  %.1 = phi ptr [ null, %.thread ], [ %7, %.preheader63 ], [ %7, %83 ]
  ret ptr %.1
}